; ModuleID = '35/1341.c'
source_filename = "35/1341.c"
target datalayout = "e-m:e-p270:32:32-p271:32:32-p272:64:64-i64:64-f80:128-n8:16:32:64-S128"
target triple = "x86_64-pc-linux-gnu"

@.str = private unnamed_addr constant [6 x i8] c"%d,%d\00", align 1
@.str.1 = private unnamed_addr constant [3 x i8] c"%d\00", align 1
@.str.2 = private unnamed_addr constant [6 x i8] c"%d+%d\00", align 1
@.str.3 = private unnamed_addr constant [3 x i8] c"No\00", align 1

; Function Attrs: noinline nounwind uwtable
define dso_local i32 @main() #0 {
  %1 = alloca i32, align 4
  %2 = alloca [8 x [8 x i32]], align 16
  %3 = alloca i32, align 4
  %4 = alloca i32, align 4
  %5 = alloca i32, align 4
  %6 = alloca i32, align 4
  %7 = alloca i32, align 4
  %8 = alloca i32, align 4
  %9 = alloca i32, align 4
  %10 = alloca i32, align 4
  %11 = alloca i32, align 4
  %12 = alloca i32, align 4
  %13 = alloca i32, align 4
  %14 = alloca i32, align 4
  %15 = alloca i32, align 4
  store i32 0, i32* %1, align 4
  %16 = call i32 (i8*, ...) @__isoc99_scanf(i8* getelementptr inbounds ([6 x i8], [6 x i8]* @.str, i64 0, i64 0), i32* %3, i32* %4)
  store i32 0, i32* %5, align 4
  br label %17

17:                                               ; preds = %38, %0
  %18 = load i32, i32* %5, align 4
  %19 = load i32, i32* %3, align 4
  %20 = icmp slt i32 %18, %19
  br i1 %20, label %21, label %41

21:                                               ; preds = %17
  store i32 0, i32* %6, align 4
  br label %22

22:                                               ; preds = %34, %21
  %23 = load i32, i32* %6, align 4
  %24 = load i32, i32* %4, align 4
  %25 = icmp slt i32 %23, %24
  br i1 %25, label %26, label %37

26:                                               ; preds = %22
  %27 = load i32, i32* %5, align 4
  %28 = sext i32 %27 to i64
  %29 = getelementptr inbounds [8 x [8 x i32]], [8 x [8 x i32]]* %2, i64 0, i64 %28
  %30 = load i32, i32* %6, align 4
  %31 = sext i32 %30 to i64
  %32 = getelementptr inbounds [8 x i32], [8 x i32]* %29, i64 0, i64 %31
  %33 = call i32 (i8*, ...) @__isoc99_scanf(i8* getelementptr inbounds ([3 x i8], [3 x i8]* @.str.1, i64 0, i64 0), i32* %32)
  br label %34

34:                                               ; preds = %26
  %35 = load i32, i32* %6, align 4
  %36 = add nsw i32 %35, 1
  store i32 %36, i32* %6, align 4
  br label %22

37:                                               ; preds = %22
  br label %38

38:                                               ; preds = %37
  %39 = load i32, i32* %5, align 4
  %40 = add nsw i32 %39, 1
  store i32 %40, i32* %5, align 4
  br label %17

41:                                               ; preds = %17
  store i32 0, i32* %10, align 4
  br label %42

42:                                               ; preds = %126, %41
  %43 = load i32, i32* %10, align 4
  %44 = load i32, i32* %3, align 4
  %45 = icmp slt i32 %43, %44
  br i1 %45, label %46, label %129

46:                                               ; preds = %42
  store i32 0, i32* %11, align 4
  br label %47

47:                                               ; preds = %122, %46
  %48 = load i32, i32* %11, align 4
  %49 = load i32, i32* %4, align 4
  %50 = icmp slt i32 %48, %49
  br i1 %50, label %51, label %125

51:                                               ; preds = %47
  store i32 0, i32* %13, align 4
  store i32 0, i32* %12, align 4
  br label %52

52:                                               ; preds = %76, %51
  %53 = load i32, i32* %12, align 4
  %54 = load i32, i32* %4, align 4
  %55 = icmp slt i32 %53, %54
  br i1 %55, label %56, label %79

56:                                               ; preds = %52
  %57 = load i32, i32* %10, align 4
  %58 = sext i32 %57 to i64
  %59 = getelementptr inbounds [8 x [8 x i32]], [8 x [8 x i32]]* %2, i64 0, i64 %58
  %60 = load i32, i32* %11, align 4
  %61 = sext i32 %60 to i64
  %62 = getelementptr inbounds [8 x i32], [8 x i32]* %59, i64 0, i64 %61
  %63 = load i32, i32* %62, align 4
  %64 = load i32, i32* %10, align 4
  %65 = sext i32 %64 to i64
  %66 = getelementptr inbounds [8 x [8 x i32]], [8 x [8 x i32]]* %2, i64 0, i64 %65
  %67 = load i32, i32* %12, align 4
  %68 = sext i32 %67 to i64
  %69 = getelementptr inbounds [8 x i32], [8 x i32]* %66, i64 0, i64 %68
  %70 = load i32, i32* %69, align 4
  %71 = icmp sgt i32 %63, %70
  br i1 %71, label %72, label %75

72:                                               ; preds = %56
  %73 = load i32, i32* %13, align 4
  %74 = add nsw i32 %73, 1
  store i32 %74, i32* %13, align 4
  br label %75

75:                                               ; preds = %72, %56
  br label %76

76:                                               ; preds = %75
  %77 = load i32, i32* %12, align 4
  %78 = add nsw i32 %77, 1
  store i32 %78, i32* %12, align 4
  br label %52

79:                                               ; preds = %52
  %80 = load i32, i32* %13, align 4
  %81 = load i32, i32* %4, align 4
  %82 = sub nsw i32 %81, 1
  %83 = icmp eq i32 %80, %82
  br i1 %83, label %84, label %121

84:                                               ; preds = %79
  store i32 0, i32* %15, align 4
  store i32 0, i32* %14, align 4
  br label %85

85:                                               ; preds = %109, %84
  %86 = load i32, i32* %14, align 4
  %87 = load i32, i32* %3, align 4
  %88 = icmp slt i32 %86, %87
  br i1 %88, label %89, label %112

89:                                               ; preds = %85
  %90 = load i32, i32* %10, align 4
  %91 = sext i32 %90 to i64
  %92 = getelementptr inbounds [8 x [8 x i32]], [8 x [8 x i32]]* %2, i64 0, i64 %91
  %93 = load i32, i32* %11, align 4
  %94 = sext i32 %93 to i64
  %95 = getelementptr inbounds [8 x i32], [8 x i32]* %92, i64 0, i64 %94
  %96 = load i32, i32* %95, align 4
  %97 = load i32, i32* %14, align 4
  %98 = sext i32 %97 to i64
  %99 = getelementptr inbounds [8 x [8 x i32]], [8 x [8 x i32]]* %2, i64 0, i64 %98
  %100 = load i32, i32* %11, align 4
  %101 = sext i32 %100 to i64
  %102 = getelementptr inbounds [8 x i32], [8 x i32]* %99, i64 0, i64 %101
  %103 = load i32, i32* %102, align 4
  %104 = icmp slt i32 %96, %103
  br i1 %104, label %105, label %108

105:                                              ; preds = %89
  %106 = load i32, i32* %15, align 4
  %107 = add nsw i32 %106, 1
  store i32 %107, i32* %15, align 4
  br label %108

108:                                              ; preds = %105, %89
  br label %109

109:                                              ; preds = %108
  %110 = load i32, i32* %14, align 4
  %111 = add nsw i32 %110, 1
  store i32 %111, i32* %14, align 4
  br label %85

112:                                              ; preds = %85
  %113 = load i32, i32* %15, align 4
  %114 = load i32, i32* %3, align 4
  %115 = sub nsw i32 %114, 1
  %116 = icmp eq i32 %113, %115
  br i1 %116, label %117, label %120

117:                                              ; preds = %112
  %118 = load i32, i32* %10, align 4
  store i32 %118, i32* %7, align 4
  %119 = load i32, i32* %11, align 4
  store i32 %119, i32* %8, align 4
  store i32 1, i32* %9, align 4
  br label %120

120:                                              ; preds = %117, %112
  br label %121

121:                                              ; preds = %120, %79
  br label %122

122:                                              ; preds = %121
  %123 = load i32, i32* %11, align 4
  %124 = add nsw i32 %123, 1
  store i32 %124, i32* %11, align 4
  br label %47

125:                                              ; preds = %47
  br label %126

126:                                              ; preds = %125
  %127 = load i32, i32* %10, align 4
  %128 = add nsw i32 %127, 1
  store i32 %128, i32* %10, align 4
  br label %42

129:                                              ; preds = %42
  %130 = load i32, i32* %9, align 4
  %131 = icmp eq i32 %130, 1
  br i1 %131, label %132, label %136

132:                                              ; preds = %129
  %133 = load i32, i32* %7, align 4
  %134 = load i32, i32* %8, align 4
  %135 = call i32 (i8*, ...) @printf(i8* getelementptr inbounds ([6 x i8], [6 x i8]* @.str.2, i64 0, i64 0), i32 %133, i32 %134)
  br label %138

136:                                              ; preds = %129
  %137 = call i32 (i8*, ...) @printf(i8* getelementptr inbounds ([3 x i8], [3 x i8]* @.str.3, i64 0, i64 0))
  br label %138

138:                                              ; preds = %136, %132
  ret i32 0
}

declare dso_local i32 @__isoc99_scanf(i8*, ...) #1

declare dso_local i32 @printf(i8*, ...) #1


!llvm.module.flags = !{!0}
!llvm.ident = !{!1}

!0 = !{i32 1, !"wchar_size", i32 4}
!1 = !{!"clang version 10.0.0-4ubuntu1 "}
